target datalayout = "e-m:e-p270:32:32-p271:32:32-p272:64:64-i64:64-i128:128-f80:128-n8:16:32:64-S128"
target triple = "x86_64-pc-linux-gnu"

%struct.Amap_Lib_t_ = type { ptr, ptr, ptr, ptr, ptr, ptr, ptr, ptr, ptr, i32, i32, i32, ptr, i32, i32, ptr, ptr, ptr, ptr, ptr, ptr, i32 }
%struct.Vec_Ptr_t_ = type { i32, i32, ptr }

@.str.15 = private unnamed_addr constant [28 x i8] c"# The genlib library \22%s\22.\0A\00", align 1

; Function Attrs: nounwind uwtable
define internal ptr @Vec_PtrEntry(ptr noundef %0, i32 noundef %1) #0 {
  %3 = alloca ptr, align 8
  %4 = alloca i32, align 4
  store ptr %0, ptr %3, align 8
  store i32 %1, ptr %4, align 4
  %5 = load ptr, ptr %3, align 8
  %6 = getelementptr inbounds %struct.Vec_Ptr_t_, ptr %5, i32 0, i32 2
  %7 = load ptr, ptr %6, align 8
  %8 = load i32, ptr %4, align 4
  %9 = sext i32 %8 to i64
  %10 = getelementptr inbounds ptr, ptr %7, i64 %9
  %11 = load ptr, ptr %10, align 8
  ret ptr %11
}

; Function Attrs: nounwind uwtable
define internal i32 @Vec_PtrSize(ptr noundef %0) #0 {
  %2 = alloca ptr, align 8
  store ptr %0, ptr %2, align 8
  %3 = load ptr, ptr %2, align 8
  %4 = getelementptr inbounds %struct.Vec_Ptr_t_, ptr %3, i32 0, i32 1
  %5 = load i32, ptr %4, align 4
  ret i32 %5
}

; Function Attrs: nounwind uwtable
define void @Amap_LibWrite(ptr noundef %0, ptr noundef %1, i32 noundef %2) #0 {
  %4 = alloca ptr, align 8
  %5 = alloca ptr, align 8
  %6 = alloca i32, align 4
  %7 = alloca ptr, align 8
  %8 = alloca i32, align 4
  store ptr %0, ptr %4, align 8
  store ptr %1, ptr %5, align 8
  store i32 %2, ptr %6, align 4
  %9 = load ptr, ptr %4, align 8
  %10 = load ptr, ptr %5, align 8
  %11 = getelementptr inbounds %struct.Amap_Lib_t_, ptr %10, i32 0, i32 0
  %12 = load ptr, ptr %11, align 8
  %13 = call i32 (ptr, ptr, ...) @fprintf(ptr noundef %9, ptr noundef @.str.15, ptr noundef %12) #10
  store i32 0, ptr %8, align 4
  br label %14

14:                                               ; preds = %33, %3
  %15 = load i32, ptr %8, align 4
  %16 = load ptr, ptr %5, align 8
  %17 = getelementptr inbounds %struct.Amap_Lib_t_, ptr %16, i32 0, i32 1
  %18 = load ptr, ptr %17, align 8
  %19 = call i32 @Vec_PtrSize(ptr noundef %18)
  %20 = icmp slt i32 %15, %19
  br i1 %20, label %21, label %27

21:                                               ; preds = %14
  %22 = load ptr, ptr %5, align 8
  %23 = getelementptr inbounds %struct.Amap_Lib_t_, ptr %22, i32 0, i32 1
  %24 = load ptr, ptr %23, align 8
  %25 = load i32, ptr %8, align 4
  %26 = call ptr @Vec_PtrEntry(ptr noundef %24, i32 noundef %25)
  store ptr %26, ptr %7, align 8
  br label %27

27:                                               ; preds = %21, %14
  %28 = phi i1 [ false, %14 ], [ true, %21 ]
  br i1 %28, label %29, label %36

29:                                               ; preds = %27
  %30 = load ptr, ptr %4, align 8
  %31 = load ptr, ptr %7, align 8
  %32 = load i32, ptr %6, align 4
  call void @Amap_LibWriteGate(ptr noundef %30, ptr noundef %31, i32 noundef %32)
  br label %33

33:                                               ; preds = %29
  %34 = load i32, ptr %8, align 4
  %35 = add nsw i32 %34, 1
  store i32 %35, ptr %8, align 4
  br label %14, !llvm.loop !8

36:                                               ; preds = %27
  ret void
}