; Function Attrs: nounwind uwtable
define void @Amap_LibWrite(ptr noundef captures(none) %0, ptr noundef readonly captures(none) %1, i32 noundef %2) local_unnamed_addr #0 {
  %4 = load ptr, ptr %1, align 8
  %5 = tail call i32 (ptr, ptr, ...) @fprintf(ptr noundef %0, ptr noundef nonnull @.str.15, ptr noundef %4) #22
  %6 = getelementptr inbounds nuw i8, ptr %1, i64 8
  %7 = load ptr, ptr %6, align 8
  %8 = getelementptr i8, ptr %7, i64 4
  %.val10 = load i32, ptr %8, align 4
  %9 = icmp sgt i32 %.val10, 0
  br i1 %9, label %.lr.ph, label %.critedge

.lr.ph:                                           ; preds = %3, %.lr.ph
  %indvars.iv = phi i64 [ %indvars.iv.next, %.lr.ph ], [ 0, %3 ]
  %10 = phi ptr [ %14, %.lr.ph ], [ %7, %3 ]
  %11 = getelementptr i8, ptr %10, i64 8
  %.val9 = load ptr, ptr %11, align 8
  %12 = getelementptr inbounds nuw ptr, ptr %.val9, i64 %indvars.iv
  %13 = load ptr, ptr %12, align 8
  tail call void @Amap_LibWriteGate(ptr noundef %0, ptr noundef %13, i32 noundef %2)
  %indvars.iv.next = add nuw nsw i64 %indvars.iv, 1
  %14 = load ptr, ptr %6, align 8
  %15 = getelementptr i8, ptr %14, i64 4
  %.val = load i32, ptr %15, align 4
  %16 = sext i32 %.val to i64
  %17 = icmp slt i64 %indvars.iv.next, %16
  br i1 %17, label %.lr.ph, label %.critedge, !llvm.loop !8

.critedge:                                        ; preds = %.lr.ph, %3
  ret void
}